target datalayout = "e-m:e-p270:32:32-p271:32:32-p272:64:64-i64:64-i128:128-f80:128-n8:16:32:64-S128"
target triple = "x86_64-pc-linux-gnu"

%struct._packet_info = type { ptr, ptr, i32, i32, %struct.nstime_t, %struct.nstime_t, %struct.nstime_t, i8, ptr, ptr, ptr, ptr, %struct._address, %struct._address, %struct._address, %struct._address, %struct._address, %struct._address, i32, ptr, i8, [3 x i8], %struct.anon, i32, i32, i32, i32, ptr, i8, ptr, ptr, i16, i16, i32, i32, i16, i32, i32, ptr, ptr, ptr, i8, i8, i16, i16, i16, i32, i16, i16, ptr, ptr, ptr, ptr, ptr, i32, i32 }
%struct.nstime_t = type { i64, i32 }
%struct._address = type { i32, i32, ptr, ptr }
%struct.anon = type { i8, [3 x i8] }

@ieee802_15_4_short_address_type = internal global i32 -1, align 4
@.str.702 = private unnamed_addr constant [7 x i8] c"addr16\00", align 1
@.str.1193 = private unnamed_addr constant [32 x i8] c"wpan.%s eq %s and wpan.%s eq %s\00", align 1
@.str.1194 = private unnamed_addr constant [7 x i8] c"addr64\00", align 1

; Function Attrs: null_pointer_is_valid sspstrong uwtable
define internal ptr @ieee802154_build_filter(ptr noundef %0, ptr noundef %1) #0 {
  %3 = alloca ptr, align 8
  %4 = alloca ptr, align 8
  store ptr %0, ptr %3, align 8
  store ptr %1, ptr %4, align 8
  %5 = load ptr, ptr %3, align 8
  %6 = getelementptr inbounds nuw %struct._packet_info, ptr %5, i32 0, i32 12
  %7 = getelementptr inbounds nuw %struct._address, ptr %6, i32 0, i32 0
  %8 = load i32, ptr %7, align 8
  %9 = load i32, ptr @ieee802_15_4_short_address_type, align 4
  %10 = icmp eq i32 %8, %9
  %11 = select i1 %10, ptr @.str.702, ptr @.str.1194
  %12 = load ptr, ptr %3, align 8
  %13 = getelementptr inbounds nuw %struct._packet_info, ptr %12, i32 0, i32 51
  %14 = load ptr, ptr %13, align 8
  %15 = load ptr, ptr %3, align 8
  %16 = getelementptr inbounds nuw %struct._packet_info, ptr %15, i32 0, i32 12
  %17 = call ptr @address_to_str(ptr noundef %14, ptr noundef %16)
  %18 = load ptr, ptr %3, align 8
  %19 = getelementptr inbounds nuw %struct._packet_info, ptr %18, i32 0, i32 13
  %20 = getelementptr inbounds nuw %struct._address, ptr %19, i32 0, i32 0
  %21 = load i32, ptr %20, align 8
  %22 = load i32, ptr @ieee802_15_4_short_address_type, align 4
  %23 = icmp eq i32 %21, %22
  %24 = select i1 %23, ptr @.str.702, ptr @.str.1194
  %25 = load ptr, ptr %3, align 8
  %26 = getelementptr inbounds nuw %struct._packet_info, ptr %25, i32 0, i32 51
  %27 = load ptr, ptr %26, align 8
  %28 = load ptr, ptr %3, align 8
  %29 = getelementptr inbounds nuw %struct._packet_info, ptr %28, i32 0, i32 13
  %30 = call ptr @address_to_str(ptr noundef %27, ptr noundef %29)
  %31 = call noalias ptr (ptr, ptr, ...) @wmem_strdup_printf(ptr noundef null, ptr noundef @.str.1193, ptr noundef %11, ptr noundef %17, ptr noundef %24, ptr noundef %30)
  ret ptr %31
}