; Function Attrs: null_pointer_is_valid sspstrong uwtable
define internal noalias ptr @ieee802154_build_filter(ptr noundef %0, ptr readnone captures(none) %1) #0 {
  %3 = getelementptr inbounds nuw i8, ptr %0, i64 112
  %4 = load i32, ptr %3, align 8
  %5 = load i32, ptr @ieee802_15_4_short_address_type, align 4
  %6 = icmp eq i32 %4, %5
  %7 = select i1 %6, ptr @.str.702, ptr @.str.1194
  %8 = getelementptr inbounds nuw i8, ptr %0, i64 408
  %9 = load ptr, ptr %8, align 8
  %10 = tail call ptr @address_to_str(ptr noundef %9, ptr noundef nonnull %3)
  %11 = getelementptr inbounds nuw i8, ptr %0, i64 136
  %12 = load i32, ptr %11, align 8
  %13 = load i32, ptr @ieee802_15_4_short_address_type, align 4
  %14 = icmp eq i32 %12, %13
  %15 = select i1 %14, ptr @.str.702, ptr @.str.1194
  %16 = load ptr, ptr %8, align 8
  %17 = tail call ptr @address_to_str(ptr noundef %16, ptr noundef nonnull %11)
  %18 = tail call noalias ptr (ptr, ptr, ...) @wmem_strdup_printf(ptr noundef null, ptr noundef nonnull @.str.1193, ptr noundef nonnull %7, ptr noundef %10, ptr noundef nonnull %15, ptr noundef %17)
  ret ptr %18
}